; Function Attrs: nounwind uwtable
define hidden i32 @av1_copy_new_frame_dec(ptr noundef %0, ptr noundef %1, ptr noundef %2) local_unnamed_addr #0 {
  %4 = getelementptr i8, ptr %0, i64 25261
  %.val = load i8, ptr %4, align 1
  %.not.i = icmp eq i8 %.val, 0
  %5 = select i1 %.not.i, i32 3, i32 1
  %6 = getelementptr inbounds nuw i8, ptr %1, i64 8
  %7 = load i32, ptr %6, align 8
  %8 = getelementptr inbounds nuw i8, ptr %2, i64 8
  %9 = load i32, ptr %8, align 8
  %10 = icmp eq i32 %7, %9
  br i1 %10, label %11, label %equal_dimensions_and_border.exit.thread

11:                                               ; preds = %3
  %12 = load i32, ptr %1, align 8
  %13 = load i32, ptr %2, align 8
  %14 = icmp eq i32 %12, %13
  br i1 %14, label %15, label %equal_dimensions_and_border.exit.thread

15:                                               ; preds = %11
  %16 = getelementptr inbounds i8, ptr %1, i64 12
  %17 = load i32, ptr %16, align 4
  %18 = getelementptr inbounds i8, ptr %2, i64 12
  %19 = load i32, ptr %18, align 4
  %20 = icmp eq i32 %17, %19
  br i1 %20, label %21, label %equal_dimensions_and_border.exit.thread

21:                                               ; preds = %15
  %22 = getelementptr inbounds nuw i8, ptr %1, i64 4
  %23 = load i32, ptr %22, align 4
  %24 = getelementptr inbounds nuw i8, ptr %2, i64 4
  %25 = load i32, ptr %24, align 4
  %26 = icmp eq i32 %23, %25
  br i1 %26, label %27, label %equal_dimensions_and_border.exit.thread

27:                                               ; preds = %21
  %28 = getelementptr inbounds nuw i8, ptr %1, i64 32
  %29 = load i32, ptr %28, align 8
  %30 = getelementptr inbounds nuw i8, ptr %2, i64 32
  %31 = load i32, ptr %30, align 8
  %32 = icmp eq i32 %29, %31
  br i1 %32, label %33, label %equal_dimensions_and_border.exit.thread

33:                                               ; preds = %27
  %34 = getelementptr inbounds i8, ptr %1, i64 36
  %35 = load i32, ptr %34, align 4
  %36 = getelementptr inbounds i8, ptr %2, i64 36
  %37 = load i32, ptr %36, align 4
  %38 = icmp eq i32 %35, %37
  br i1 %38, label %39, label %equal_dimensions_and_border.exit.thread

39:                                               ; preds = %33
  %40 = getelementptr inbounds nuw i8, ptr %1, i64 128
  %41 = load i32, ptr %40, align 8
  %42 = getelementptr inbounds nuw i8, ptr %2, i64 128
  %43 = load i32, ptr %42, align 8
  %44 = icmp eq i32 %41, %43
  br i1 %44, label %equal_dimensions_and_border.exit, label %equal_dimensions_and_border.exit.thread

equal_dimensions_and_border.exit:                 ; preds = %39
  %45 = getelementptr inbounds nuw i8, ptr %1, i64 192
  %46 = load i32, ptr %45, align 8
  %47 = getelementptr inbounds nuw i8, ptr %2, i64 192
  %48 = load i32, ptr %47, align 8
  %49 = xor i32 %48, %46
  %50 = and i32 %49, 8
  %.not.not = icmp eq i32 %50, 0
  br i1 %.not.not, label %52, label %equal_dimensions_and_border.exit.thread

equal_dimensions_and_border.exit.thread:          ; preds = %3, %11, %15, %21, %27, %33, %39, %equal_dimensions_and_border.exit
  %51 = getelementptr inbounds nuw i8, ptr %0, i64 40
  tail call void (ptr, i32, ptr, ...) @aom_internal_error(ptr noundef nonnull %51, i32 noundef 1, ptr noundef nonnull @.str.4) #10
  br label %53

52:                                               ; preds = %equal_dimensions_and_border.exit
  tail call void @aom_yv12_copy_frame_c(ptr noundef nonnull %1, ptr noundef nonnull %2, i32 noundef %5) #10
  br label %53

53:                                               ; preds = %52, %equal_dimensions_and_border.exit.thread
  %54 = getelementptr inbounds nuw i8, ptr %0, i64 40
  %55 = load i32, ptr %54, align 8
  ret i32 %55
}